target datalayout = "e-m:e-p270:32:32-p271:32:32-p272:64:64-i64:64-i128:128-f80:128-n8:16:32:64-S128"
target triple = "x86_64-pc-linux-gnu"

%struct.portalhashent = type { [64 x i8], ptr }
%struct.PortalData = type { ptr, ptr, ptr, ptr, ptr, i32, i32, i32, ptr, i32, %struct.QueryCompletion, ptr, ptr, ptr, ptr, i32, i32, i32, i8, i8, ptr, ptr, ptr, ptr, ptr, ptr, ptr, i8, i8, i64, i64, i8 }
%struct.QueryCompletion = type { i32, i64 }
%struct.HASH_SEQ_STATUS = type { ptr, i32, ptr, i8, i32 }

@PortalHashTable = internal global ptr null, align 8
@shmem_exit_inprogress = external global i8, align 1

; Function Attrs: nounwind uwtable
define internal void @PortalReleaseCachedPlan(ptr noundef %0) #0 {
  %2 = alloca ptr, align 8
  store ptr %0, ptr %2, align 8
  %3 = load ptr, ptr %2, align 8
  %4 = getelementptr inbounds nuw %struct.PortalData, ptr %3, i32 0, i32 12
  %5 = load ptr, ptr %4, align 8
  %6 = icmp ne ptr %5, null
  br i1 %6, label %7, label %15

7:                                                ; preds = %1
  %8 = load ptr, ptr %2, align 8
  %9 = getelementptr inbounds nuw %struct.PortalData, ptr %8, i32 0, i32 12
  %10 = load ptr, ptr %9, align 8
  call void @ReleaseCachedPlan(ptr noundef %10, ptr noundef null)
  %11 = load ptr, ptr %2, align 8
  %12 = getelementptr inbounds nuw %struct.PortalData, ptr %11, i32 0, i32 12
  store ptr null, ptr %12, align 8
  %13 = load ptr, ptr %2, align 8
  %14 = getelementptr inbounds nuw %struct.PortalData, ptr %13, i32 0, i32 11
  store ptr null, ptr %14, align 8
  br label %15

15:                                               ; preds = %7, %1
  ret void
}

; Function Attrs: nounwind uwtable
define dso_local void @MarkPortalFailed(ptr noundef %0) #0 {
  %2 = alloca ptr, align 8
  store ptr %0, ptr %2, align 8
  %3 = load ptr, ptr %2, align 8
  %4 = getelementptr inbounds nuw %struct.PortalData, ptr %3, i32 0, i32 17
  store i32 5, ptr %4, align 8
  %5 = load ptr, ptr %2, align 8
  %6 = getelementptr inbounds nuw %struct.PortalData, ptr %5, i32 0, i32 4
  %7 = load ptr, ptr %6, align 8
  %8 = icmp ne ptr %7, null
  br i1 %8, label %9, label %16

9:                                                ; preds = %1
  %10 = load ptr, ptr %2, align 8
  %11 = getelementptr inbounds nuw %struct.PortalData, ptr %10, i32 0, i32 4
  %12 = load ptr, ptr %11, align 8
  %13 = load ptr, ptr %2, align 8
  call void %12(ptr noundef %13)
  %14 = load ptr, ptr %2, align 8
  %15 = getelementptr inbounds nuw %struct.PortalData, ptr %14, i32 0, i32 4
  store ptr null, ptr %15, align 8
  br label %16

16:                                               ; preds = %9, %1
  ret void
}

; Function Attrs: nounwind uwtable
define dso_local void @AtAbort_Portals() #0 {
  %1 = alloca %struct.HASH_SEQ_STATUS, align 8
  %2 = alloca ptr, align 8
  %3 = alloca ptr, align 8
  %4 = alloca i32, align 4
  call void @llvm.lifetime.start.p0(i64 32, ptr %1) #6
  call void @llvm.lifetime.start.p0(i64 8, ptr %2) #6
  %5 = load ptr, ptr @PortalHashTable, align 8
  call void @hash_seq_init(ptr noundef %1, ptr noundef %5)
  br label %6

6:                                                ; preds = %68, %66, %0
  %7 = call ptr @hash_seq_search(ptr noundef %1)
  store ptr %7, ptr %2, align 8
  %8 = icmp ne ptr %7, null
  br i1 %8, label %9, label %69

9:                                                ; preds = %6
  call void @llvm.lifetime.start.p0(i64 8, ptr %3) #6
  %10 = load ptr, ptr %2, align 8
  %11 = getelementptr inbounds nuw %struct.portalhashent, ptr %10, i32 0, i32 1
  %12 = load ptr, ptr %11, align 8
  store ptr %12, ptr %3, align 8
  %13 = load ptr, ptr %3, align 8
  %14 = getelementptr inbounds nuw %struct.PortalData, ptr %13, i32 0, i32 17
  %15 = load i32, ptr %14, align 8
  %16 = icmp eq i32 %15, 3
  br i1 %16, label %17, label %22

17:                                               ; preds = %9
  %18 = load i8, ptr @shmem_exit_inprogress, align 1, !range !4, !noundef !5
  %19 = trunc i8 %18 to i1
  br i1 %19, label %20, label %22

20:                                               ; preds = %17
  %21 = load ptr, ptr %3, align 8
  call void @MarkPortalFailed(ptr noundef %21)
  br label %22

22:                                               ; preds = %20, %17, %9
  %23 = load ptr, ptr %3, align 8
  %24 = getelementptr inbounds nuw %struct.PortalData, ptr %23, i32 0, i32 5
  %25 = load i32, ptr %24, align 8
  %26 = icmp eq i32 %25, 0
  br i1 %26, label %27, label %28

27:                                               ; preds = %22
  store i32 2, ptr %4, align 4
  br label %66, !llvm.loop !10

28:                                               ; preds = %22
  %29 = load ptr, ptr %3, align 8
  %30 = getelementptr inbounds nuw %struct.PortalData, ptr %29, i32 0, i32 19
  %31 = load i8, ptr %30, align 1, !range !4, !noundef !5
  %32 = trunc i8 %31 to i1
  br i1 %32, label %33, label %34

33:                                               ; preds = %28
  store i32 2, ptr %4, align 4
  br label %66, !llvm.loop !10

34:                                               ; preds = %28
  %35 = load ptr, ptr %3, align 8
  %36 = getelementptr inbounds nuw %struct.PortalData, ptr %35, i32 0, i32 17
  %37 = load i32, ptr %36, align 8
  %38 = icmp eq i32 %37, 2
  br i1 %38, label %39, label %41

39:                                               ; preds = %34
  %40 = load ptr, ptr %3, align 8
  call void @MarkPortalFailed(ptr noundef %40)
  br label %41

41:                                               ; preds = %39, %34
  %42 = load ptr, ptr %3, align 8
  %43 = getelementptr inbounds nuw %struct.PortalData, ptr %42, i32 0, i32 4
  %44 = load ptr, ptr %43, align 8
  %45 = icmp ne ptr %44, null
  br i1 %45, label %46, label %53

46:                                               ; preds = %41
  %47 = load ptr, ptr %3, align 8
  %48 = getelementptr inbounds nuw %struct.PortalData, ptr %47, i32 0, i32 4
  %49 = load ptr, ptr %48, align 8
  %50 = load ptr, ptr %3, align 8
  call void %49(ptr noundef %50)
  %51 = load ptr, ptr %3, align 8
  %52 = getelementptr inbounds nuw %struct.PortalData, ptr %51, i32 0, i32 4
  store ptr null, ptr %52, align 8
  br label %53

53:                                               ; preds = %46, %41
  %54 = load ptr, ptr %3, align 8
  call void @PortalReleaseCachedPlan(ptr noundef %54)
  %55 = load ptr, ptr %3, align 8
  %56 = getelementptr inbounds nuw %struct.PortalData, ptr %55, i32 0, i32 3
  store ptr null, ptr %56, align 8
  %57 = load ptr, ptr %3, align 8
  %58 = getelementptr inbounds nuw %struct.PortalData, ptr %57, i32 0, i32 17
  %59 = load i32, ptr %58, align 8
  %60 = icmp ne i32 %59, 3
  br i1 %60, label %61, label %65

61:                                               ; preds = %53
  %62 = load ptr, ptr %3, align 8
  %63 = getelementptr inbounds nuw %struct.PortalData, ptr %62, i32 0, i32 2
  %64 = load ptr, ptr %63, align 8
  call void @MemoryContextDeleteChildren(ptr noundef %64)
  br label %65

65:                                               ; preds = %61, %53
  store i32 0, ptr %4, align 4
  br label %66

66:                                               ; preds = %65, %33, %27
  call void @llvm.lifetime.end.p0(i64 8, ptr %3) #6
  %67 = load i32, ptr %4, align 4
  switch i32 %67, label %70 [
    i32 0, label %68
    i32 2, label %6
  ]

68:                                               ; preds = %66
  br label %6, !llvm.loop !10

69:                                               ; preds = %6
  call void @llvm.lifetime.end.p0(i64 8, ptr %2) #6
  call void @llvm.lifetime.end.p0(i64 32, ptr %1) #6
  ret void

70:                                               ; preds = %66
  unreachable
}