; Function Attrs: nounwind uwtable
define dso_local void @AtAbort_Portals() local_unnamed_addr #0 {
  %1 = alloca %struct.HASH_SEQ_STATUS, align 8
  call void @llvm.lifetime.start.p0(i64 32, ptr nonnull %1) #8
  %2 = load ptr, ptr @PortalHashTable, align 8
  call void @hash_seq_init(ptr noundef nonnull %1, ptr noundef %2) #8
  %3 = call ptr @hash_seq_search(ptr noundef nonnull %1) #8
  %.not21 = icmp eq ptr %3, null
  br i1 %.not21, label %._crit_edge, label %.lr.ph

.lr.ph:                                           ; preds = %0, %42
  %4 = phi ptr [ %43, %42 ], [ %3, %0 ]
  %5 = getelementptr inbounds nuw i8, ptr %4, i64 64
  %6 = load ptr, ptr %5, align 8
  %7 = getelementptr inbounds nuw i8, ptr %6, i64 128
  %8 = load i32, ptr %7, align 8
  %9 = icmp eq i32 %8, 3
  br i1 %9, label %10, label %MarkPortalFailed.exit

10:                                               ; preds = %.lr.ph
  %11 = load i8, ptr @shmem_exit_inprogress, align 1, !range !4, !noundef !5
  %12 = trunc nuw i8 %11 to i1
  br i1 %12, label %13, label %MarkPortalFailed.exit

13:                                               ; preds = %10
  store i32 5, ptr %7, align 8
  %14 = getelementptr inbounds nuw i8, ptr %6, i64 32
  %15 = load ptr, ptr %14, align 8
  %.not.i = icmp eq ptr %15, null
  br i1 %.not.i, label %MarkPortalFailed.exit, label %16

16:                                               ; preds = %13
  call void %15(ptr noundef nonnull %6) #8
  store ptr null, ptr %14, align 8
  br label %MarkPortalFailed.exit

MarkPortalFailed.exit:                            ; preds = %16, %13, %10, %.lr.ph
  %17 = getelementptr inbounds nuw i8, ptr %6, i64 40
  %18 = load i32, ptr %17, align 8
  %19 = icmp eq i32 %18, 0
  br i1 %19, label %42, label %20, !llvm.loop !9

20:                                               ; preds = %MarkPortalFailed.exit
  %21 = getelementptr inbounds nuw i8, ptr %6, i64 133
  %22 = load i8, ptr %21, align 1, !range !4, !noundef !5
  %23 = trunc nuw i8 %22 to i1
  br i1 %23, label %42, label %24, !llvm.loop !9

24:                                               ; preds = %20
  %25 = load i32, ptr %7, align 8
  %26 = icmp eq i32 %25, 2
  br i1 %26, label %27, label %MarkPortalFailed.exit19

27:                                               ; preds = %24
  store i32 5, ptr %7, align 8
  %28 = getelementptr inbounds nuw i8, ptr %6, i64 32
  %29 = load ptr, ptr %28, align 8
  %.not.i18 = icmp eq ptr %29, null
  br i1 %.not.i18, label %MarkPortalFailed.exit19.thread, label %30

30:                                               ; preds = %27
  call void %29(ptr noundef nonnull %6) #8
  store ptr null, ptr %28, align 8
  br label %MarkPortalFailed.exit19.thread

MarkPortalFailed.exit19:                          ; preds = %24
  %.phi.trans.insert = getelementptr inbounds nuw i8, ptr %6, i64 32
  %.pre = load ptr, ptr %.phi.trans.insert, align 8
  %.not16 = icmp eq ptr %.pre, null
  br i1 %.not16, label %MarkPortalFailed.exit19.thread, label %31

31:                                               ; preds = %MarkPortalFailed.exit19
  %32 = getelementptr inbounds nuw i8, ptr %6, i64 32
  call void %.pre(ptr noundef nonnull %6) #8
  store ptr null, ptr %32, align 8
  br label %MarkPortalFailed.exit19.thread

MarkPortalFailed.exit19.thread:                   ; preds = %27, %30, %31, %MarkPortalFailed.exit19
  %33 = getelementptr inbounds nuw i8, ptr %6, i64 96
  %34 = load ptr, ptr %33, align 8
  %.not.i20 = icmp eq ptr %34, null
  br i1 %.not.i20, label %PortalReleaseCachedPlan.exit, label %35

35:                                               ; preds = %MarkPortalFailed.exit19.thread
  call void @ReleaseCachedPlan(ptr noundef nonnull %34, ptr noundef null) #8
  %36 = getelementptr inbounds nuw i8, ptr %6, i64 88
  call void @llvm.memset.p0.i64(ptr noundef nonnull align 8 dereferenceable(16) %36, i8 0, i64 16, i1 false)
  br label %PortalReleaseCachedPlan.exit

PortalReleaseCachedPlan.exit:                     ; preds = %MarkPortalFailed.exit19.thread, %35
  %37 = getelementptr inbounds nuw i8, ptr %6, i64 24
  store ptr null, ptr %37, align 8
  %38 = load i32, ptr %7, align 8
  %.not17 = icmp eq i32 %38, 3
  br i1 %.not17, label %42, label %39

39:                                               ; preds = %PortalReleaseCachedPlan.exit
  %40 = getelementptr inbounds nuw i8, ptr %6, i64 16
  %41 = load ptr, ptr %40, align 8
  call void @MemoryContextDeleteChildren(ptr noundef %41) #8
  br label %42

42:                                               ; preds = %PortalReleaseCachedPlan.exit, %39, %20, %MarkPortalFailed.exit
  %43 = call ptr @hash_seq_search(ptr noundef nonnull %1) #8
  %.not = icmp eq ptr %43, null
  br i1 %.not, label %._crit_edge, label %.lr.ph

._crit_edge:                                      ; preds = %42, %0
  call void @llvm.lifetime.end.p0(i64 32, ptr nonnull %1) #8
  ret void
}